target datalayout = "e-m:e-p270:32:32-p271:32:32-p272:64:64-i64:64-i128:128-f80:128-n8:16:32:64-S128"
target triple = "x86_64-pc-linux-gnu"

; Function Attrs: mustprogress uwtable
define noundef i32 @_Z9gmx_fsyncP8_IO_FILE(ptr noundef %0) #6 {
  %2 = alloca ptr, align 8
  %3 = alloca i32, align 4
  %4 = alloca i32, align 4
  store ptr %0, ptr %2, align 8, !tbaa !15
  call void @llvm.lifetime.start.p0(i64 4, ptr %3) #3
  store i32 0, ptr %3, align 4, !tbaa !11
  call void @llvm.lifetime.start.p0(i64 4, ptr %4) #3
  %5 = load ptr, ptr %2, align 8, !tbaa !15
  %6 = call i32 @fileno(ptr noundef %5) #3
  store i32 %6, ptr %4, align 4, !tbaa !11
  %7 = load i32, ptr %4, align 4, !tbaa !11
  %8 = icmp sge i32 %7, 0
  br i1 %8, label %9, label %12

9:                                                ; preds = %1
  %10 = load i32, ptr %4, align 4, !tbaa !11
  %11 = call i32 @fsync(i32 noundef %10)
  store i32 %11, ptr %3, align 4, !tbaa !11
  br label %12

12:                                               ; preds = %9, %1
  call void @llvm.lifetime.end.p0(i64 4, ptr %4) #3
  %13 = load i32, ptr %3, align 4, !tbaa !11
  %14 = icmp ne i32 %13, 0
  br i1 %14, label %15, label %20

15:                                               ; preds = %12
  %16 = call ptr @__errno_location() #23
  %17 = load i32, ptr %16, align 4, !tbaa !11
  %18 = icmp eq i32 %17, 4
  br i1 %18, label %19, label %20

19:                                               ; preds = %15
  store i32 0, ptr %3, align 4, !tbaa !11
  br label %20

20:                                               ; preds = %19, %15, %12
  %21 = load i32, ptr %3, align 4, !tbaa !11
  %22 = icmp ne i32 %21, 0
  br i1 %22, label %23, label %28

23:                                               ; preds = %20
  %24 = call ptr @__errno_location() #23
  %25 = load i32, ptr %24, align 4, !tbaa !11
  %26 = icmp eq i32 %25, 22
  br i1 %26, label %27, label %28

27:                                               ; preds = %23
  store i32 0, ptr %3, align 4, !tbaa !11
  br label %28

28:                                               ; preds = %27, %23, %20
  %29 = load i32, ptr %3, align 4, !tbaa !11
  call void @llvm.lifetime.end.p0(i64 4, ptr %3) #3
  ret i32 %29
}