; Function Attrs: mustprogress uwtable
define noundef i32 @_Z9gmx_fsyncP8_IO_FILE(ptr noundef captures(none) %0) local_unnamed_addr #9 {
  %2 = tail call i32 @fileno(ptr noundef %0) #30
  %3 = icmp sgt i32 %2, -1
  br i1 %3, label %4, label %.thread10

4:                                                ; preds = %1
  %5 = tail call i32 @fsync(i32 noundef %2)
  %.not = icmp eq i32 %5, 0
  br i1 %.not, label %.thread10, label %6

6:                                                ; preds = %4
  %7 = tail call ptr @__errno_location() #34
  %8 = load i32, ptr %7, align 4, !tbaa !9
  %9 = icmp eq i32 %8, 4
  br i1 %9, label %.thread10, label %10

10:                                               ; preds = %6
  %11 = icmp eq i32 %8, 22
  %spec.select7 = select i1 %11, i32 0, i32 %5
  br label %.thread10

.thread10:                                        ; preds = %6, %1, %4, %10
  %.2 = phi i32 [ %spec.select7, %10 ], [ 0, %4 ], [ 0, %1 ], [ 0, %6 ]
  ret i32 %.2
}